; ModuleID = '15/149.c'
source_filename = "15/149.c"
target datalayout = "e-m:e-p270:32:32-p271:32:32-p272:64:64-i64:64-f80:128-n8:16:32:64-S128"
target triple = "x86_64-pc-linux-gnu"

@.str = private unnamed_addr constant [3 x i8] c"%d\00", align 1
@.str.1 = private unnamed_addr constant [4 x i8] c"%d\0A\00", align 1

; Function Attrs: noinline nounwind uwtable
define dso_local i32 @main(i32 %0, i8** %1) #0 {
  %3 = alloca i32, align 4
  %4 = alloca i32, align 4
  %5 = alloca i8**, align 8
  %6 = alloca i32, align 4
  %7 = alloca i32, align 4
  %8 = alloca i32, align 4
  %9 = alloca i32, align 4
  %10 = alloca i32, align 4
  %11 = alloca i32, align 4
  %12 = alloca i32, align 4
  %13 = alloca i32, align 4
  %14 = alloca [1000 x [1000 x i32]], align 16
  store i32 0, i32* %3, align 4
  store i32 %0, i32* %4, align 4
  store i8** %1, i8*** %5, align 8
  %15 = call i32 (i8*, ...) @__isoc99_scanf(i8* getelementptr inbounds ([3 x i8], [3 x i8]* @.str, i64 0, i64 0), i32* %6)
  store i32 1, i32* %7, align 4
  br label %16

16:                                               ; preds = %37, %2
  %17 = load i32, i32* %7, align 4
  %18 = load i32, i32* %6, align 4
  %19 = icmp sle i32 %17, %18
  br i1 %19, label %20, label %40

20:                                               ; preds = %16
  store i32 1, i32* %8, align 4
  br label %21

21:                                               ; preds = %33, %20
  %22 = load i32, i32* %8, align 4
  %23 = load i32, i32* %6, align 4
  %24 = icmp sle i32 %22, %23
  br i1 %24, label %25, label %36

25:                                               ; preds = %21
  %26 = load i32, i32* %7, align 4
  %27 = sext i32 %26 to i64
  %28 = getelementptr inbounds [1000 x [1000 x i32]], [1000 x [1000 x i32]]* %14, i64 0, i64 %27
  %29 = load i32, i32* %8, align 4
  %30 = sext i32 %29 to i64
  %31 = getelementptr inbounds [1000 x i32], [1000 x i32]* %28, i64 0, i64 %30
  %32 = call i32 (i8*, ...) @__isoc99_scanf(i8* getelementptr inbounds ([3 x i8], [3 x i8]* @.str, i64 0, i64 0), i32* %31)
  br label %33

33:                                               ; preds = %25
  %34 = load i32, i32* %8, align 4
  %35 = add nsw i32 %34, 1
  store i32 %35, i32* %8, align 4
  br label %21

36:                                               ; preds = %21
  br label %37

37:                                               ; preds = %36
  %38 = load i32, i32* %7, align 4
  %39 = add nsw i32 %38, 1
  store i32 %39, i32* %7, align 4
  br label %16

40:                                               ; preds = %16
  store i32 0, i32* %9, align 4
  store i32 1, i32* %7, align 4
  br label %41

41:                                               ; preds = %71, %40
  %42 = load i32, i32* %7, align 4
  %43 = load i32, i32* %6, align 4
  %44 = icmp sle i32 %42, %43
  br i1 %44, label %45, label %74

45:                                               ; preds = %41
  store i32 1, i32* %8, align 4
  br label %46

46:                                               ; preds = %63, %45
  %47 = load i32, i32* %8, align 4
  %48 = load i32, i32* %6, align 4
  %49 = icmp sle i32 %47, %48
  br i1 %49, label %50, label %66

50:                                               ; preds = %46
  %51 = load i32, i32* %7, align 4
  %52 = sext i32 %51 to i64
  %53 = getelementptr inbounds [1000 x [1000 x i32]], [1000 x [1000 x i32]]* %14, i64 0, i64 %52
  %54 = load i32, i32* %8, align 4
  %55 = sext i32 %54 to i64
  %56 = getelementptr inbounds [1000 x i32], [1000 x i32]* %53, i64 0, i64 %55
  %57 = load i32, i32* %56, align 4
  %58 = icmp eq i32 %57, 0
  br i1 %58, label %59, label %62

59:                                               ; preds = %50
  %60 = load i32, i32* %7, align 4
  store i32 %60, i32* %11, align 4
  %61 = load i32, i32* %8, align 4
  store i32 %61, i32* %9, align 4
  br label %66

62:                                               ; preds = %50
  br label %63

63:                                               ; preds = %62
  %64 = load i32, i32* %8, align 4
  %65 = add nsw i32 %64, 1
  store i32 %65, i32* %8, align 4
  br label %46

66:                                               ; preds = %59, %46
  %67 = load i32, i32* %9, align 4
  %68 = icmp ne i32 %67, 0
  br i1 %68, label %69, label %70

69:                                               ; preds = %66
  br label %74

70:                                               ; preds = %66
  br label %71

71:                                               ; preds = %70
  %72 = load i32, i32* %7, align 4
  %73 = add nsw i32 %72, 1
  store i32 %73, i32* %7, align 4
  br label %41

74:                                               ; preds = %69, %41
  store i32 0, i32* %10, align 4
  %75 = load i32, i32* %6, align 4
  store i32 %75, i32* %7, align 4
  br label %76

76:                                               ; preds = %105, %74
  %77 = load i32, i32* %7, align 4
  %78 = icmp sge i32 %77, 1
  br i1 %78, label %79, label %108

79:                                               ; preds = %76
  %80 = load i32, i32* %6, align 4
  store i32 %80, i32* %8, align 4
  br label %81

81:                                               ; preds = %97, %79
  %82 = load i32, i32* %8, align 4
  %83 = icmp sge i32 %82, 1
  br i1 %83, label %84, label %100

84:                                               ; preds = %81
  %85 = load i32, i32* %7, align 4
  %86 = sext i32 %85 to i64
  %87 = getelementptr inbounds [1000 x [1000 x i32]], [1000 x [1000 x i32]]* %14, i64 0, i64 %86
  %88 = load i32, i32* %8, align 4
  %89 = sext i32 %88 to i64
  %90 = getelementptr inbounds [1000 x i32], [1000 x i32]* %87, i64 0, i64 %89
  %91 = load i32, i32* %90, align 4
  %92 = icmp eq i32 %91, 0
  br i1 %92, label %93, label %96

93:                                               ; preds = %84
  %94 = load i32, i32* %7, align 4
  store i32 %94, i32* %12, align 4
  %95 = load i32, i32* %8, align 4
  store i32 %95, i32* %10, align 4
  br label %100

96:                                               ; preds = %84
  br label %97

97:                                               ; preds = %96
  %98 = load i32, i32* %8, align 4
  %99 = add nsw i32 %98, -1
  store i32 %99, i32* %8, align 4
  br label %81

100:                                              ; preds = %93, %81
  %101 = load i32, i32* %10, align 4
  %102 = icmp ne i32 %101, 0
  br i1 %102, label %103, label %104

103:                                              ; preds = %100
  br label %108

104:                                              ; preds = %100
  br label %105

105:                                              ; preds = %104
  %106 = load i32, i32* %7, align 4
  %107 = add nsw i32 %106, -1
  store i32 %107, i32* %7, align 4
  br label %76

108:                                              ; preds = %103, %76
  %109 = load i32, i32* %10, align 4
  %110 = load i32, i32* %9, align 4
  %111 = sub nsw i32 %109, %110
  %112 = sub nsw i32 %111, 1
  %113 = load i32, i32* %12, align 4
  %114 = load i32, i32* %11, align 4
  %115 = sub nsw i32 %113, %114
  %116 = sub nsw i32 %115, 1
  %117 = mul nsw i32 %112, %116
  store i32 %117, i32* %13, align 4
  %118 = load i32, i32* %13, align 4
  %119 = call i32 (i8*, ...) @printf(i8* getelementptr inbounds ([4 x i8], [4 x i8]* @.str.1, i64 0, i64 0), i32 %118)
  ret i32 0
}

declare dso_local i32 @__isoc99_scanf(i8*, ...) #1

declare dso_local i32 @printf(i8*, ...) #1


!llvm.module.flags = !{!0}
!llvm.ident = !{!1}

!0 = !{i32 1, !"wchar_size", i32 4}
!1 = !{!"clang version 10.0.0-4ubuntu1 "}
